; Function Attrs: null_pointer_is_valid sspstrong uwtable
define internal i32 @winreg_dissect_element_KeySecurityData_data_(ptr noundef %0, i32 noundef %1, ptr noundef %2, ptr noundef %3, ptr noundef %4, ptr noundef %5) #0 {
  %7 = alloca i32, align 4
  call void @llvm.lifetime.start.p0(i64 4, ptr nonnull %7) #3
  %8 = getelementptr inbounds nuw i8, ptr %4, i64 25
  %9 = load i8, ptr %8, align 1, !range !6, !noundef !7
  %10 = trunc nuw i8 %9 to i1
  br i1 %10, label %22, label %11

11:                                               ; preds = %6
  %12 = load i32, ptr @hf_winreg_sd_max_size, align 4
  %13 = tail call i32 @dissect_ndr_uint32(ptr noundef %0, i32 noundef %1, ptr noundef %2, ptr noundef %3, ptr noundef %4, ptr noundef %5, i32 noundef %12, ptr noundef null)
  %14 = load i32, ptr @hf_winreg_sd_offset, align 4
  %15 = tail call i32 @dissect_ndr_uint32(ptr noundef %0, i32 noundef %13, ptr noundef %2, ptr noundef %3, ptr noundef %4, ptr noundef %5, i32 noundef %14, ptr noundef null)
  %16 = load i32, ptr @hf_winreg_sd_actual_size, align 4
  %17 = call i32 @dissect_ndr_uint32(ptr noundef %0, i32 noundef %15, ptr noundef %2, ptr noundef %3, ptr noundef %4, ptr noundef %5, i32 noundef %16, ptr noundef nonnull %7)
  %18 = load i32, ptr %7, align 4
  %19 = call i32 @dissect_nt_sec_desc(ptr noundef %0, i32 noundef %17, ptr noundef %2, ptr noundef %3, ptr noundef %5, i1 noundef zeroext true, i32 noundef %18, ptr noundef nonnull @winreg_access_mask_info)
  %20 = load i32, ptr %7, align 4
  %21 = add i32 %20, %17
  br label %22

22:                                               ; preds = %6, %11
  %.0 = phi i32 [ %21, %11 ], [ %1, %6 ]
  call void @llvm.lifetime.end.p0(i64 4, ptr nonnull %7) #3
  ret i32 %.0
}